(lp0
(lp1
S'1:4'
p2
aS'0.1'
p3
aS'0.1'
p4
aS'0.1'
p5
aa(lp6
I33026
aI33026
aI33026
aI33026
aI33026
aI33026
aI33026
aI33026
aI33026
aI33026
aI33026
aI33026
aI33026
aI33026
aI33026
aI33026
aI33026
aI33026
aI33026
aI33026
aI33026
aI33026
aI33026
aI33026
aI33026
aI33026
aI33026
aI33026
aI33026
aI33026
aI33026
aI33026
aI33026
aI33026
aI33026
aI33026
aI33026
aI33026
aI33026
aI33026
aI33026
aI33026
aI33026
aI33026
aI33026
aI33026
aI33026
aI33026
aI33026
aI33026
aI33026
aI33026
aI33026
aI33026
aI33026
aI33026
aI33026
aI33026
aI33026
aI33026
aI33026
aI33026
aI33026
aI33026
aI33026
aI33027
aI33027
aI33027
aI33027
aI33027
aI33027
aI33027
aI33027
aI33027
aI33027
aI33027
aI33027
aI33028
aI33028
aI33028
aI33028
aI33028
aI33028
aI33028
aI33028
aI33028
aI33028
aI33028
aI33028
aI33028
aI33028
aI33028
aI33028
aI33028
aI33028
aI33028
aI33028
aI33028
aI33028
aI33028
aI33028
aI33028
aI33028
aI33028
aI33028
aI33028
aI33028
aI33028
aI33028
aI33028
aI33028
aI33028
aI33028
aI33028
aI33028
aI33025
aI33025
aI33025
aI33025
aI33025
aI33025
aI33025
aI33025
aI33025
aI33025
aI33025
aI33025
aI33025
aI33025
aI33025
aI33025
aI33025
aI33025
aI33025
aI33025
aI33025
aI33025
aI33025
aI33025
aI33025
aI33025
aI33025
aI33025
aI33025
aI33025
aI33025
aI33025
aI33025
aI33025
aI33025
aI33025
aI33025
aI33025
aI33025
aI33025
aI33025
aI33025
aI33025
aI33025
aI33025
aI33025
aI33025
aI33025
aI33025
aI33025
aI33026
aI33026
aI33026
aI33026
aI33026
aI33025
aI33025
aI33025
aI33025
aI33025
aI33025
aI33025
aI33025
aI33025
aI33025
aI33025
aI33025
aI33025
aI33025
aI33025
aI33025
aI33025
aI33025
aI33025
aI33025
aI33025
aI33025
aI33025
aI33025
aI33025
aI33025
aI33025
aI33025
aI33025
aI33025
aI33025
aI33028
aI33028
aI33028
aI33028
aI33027
aI33027
aI33027
aI33027
aI33027
aI33027
aI33027
aI33027
aI33027
aI33027
aI33027
aI33027
aI33027
aI33027
aI33027
aI33025
aI33025
aI33025
aI33025
aI33025
aI33025
aI33025
aI33025
aI33025
aI33025
aI33025
aI33025
aI33025
aI33028
aI33028
aI33028
aI33028
aI33028
aI33028
aI33028
aI33028
aI33028
aI33026
aI33026
aI33026
aI33026
aI33026
aI33026
aI33026
aI33026
aI33026
aI33026
aI33026
aI33026
aI33026
aI33026
aI33026
aI33026
aI33026
aI33026
aI33026
aI33026
aI33026
aI33026
aI33026
aI33026
aI33026
aI33026
aI33026
aI33026
aI33026
aI33026
aI33026
aI33026
aI33026
aI33026
aI33026
aI33027
aI33027
aI33027
aI33028
aI33028
aI33028
aI33028
aI33028
aI33028
aI33028
aI33028
aI33026
aI33026
aI33026
aI33026
aI33026
aI33026
aI33026
aI33026
aI33028
aI33028
aI33028
aI33028
aI33028
aI33028
aI33028
aI33028
aI33028
aI33028
aI33028
aI33028
aI33028
aI33028
aI33028
aI33028
aI33028
aI33028
aI33028
aI33028
aI33028
aI33028
aI33028
aI33028
aI33028
aI33028
aI33028
aI33028
aI33028
aI33028
aI33028
aI33028
aI33028
aI33028
aI33028
aI33025
aI33025
aI33025
aI33025
aI33025
aI33025
aI33025
aI33025
aI33025
aI33025
aI33025
aI33025
aI33025
aI33025
aI33025
aI33025
aI33025
aI33025
aI33025
aI33025
aI33025
aI33025
aI33025
aI33025
aI33025
aI33025
aI33025
aI33025
aI33025
aI33025
aI33025
aI33025
aI33025
aI33025
aI33025
aI33025
aI33025
aI33025
aI33025
aI33025
aI33025
aI33025
aI33025
aI33025
aI33025
aI33025
aI33025
aI33028
aI33028
aI33028
aI33028
aI33028
aI33028
aI33028
aI33028
aI33028
aI33027
aI33027
aI33027
aI33025
aI33025
aI33025
aI33025
aI33025
aI33025
aI33026
aI33026
aI33026
aI33026
aI33027
aI33027
aI33027
aI33027
aI33027
aI33027
aI33027
aI33027
aI33027
aI33027
aI33027
aI33027
aI33027
aI33027
aI33027
aI33027
aI33027
aI33027
aI33027
aI33027
aI33027
aI33027
aI33027
aI33025
aI33025
aI33025
aI33025
aI33025
aI33025
aI33025
aI33025
aI33025
aI33025
aI33025
aI33025
aI33025
aI33026
aI33026
aI33026
aI33026
aI33026
aI33026
aI33026
aI33026
aI33026
aI33026
aI33026
aI33026
aI33026
aI33026
aI33026
aI33026
aI33025
aI33025
aI33025
aI33025
aI33025
aI33025
aI33025
aI33025
aI33025
aI33025
aI33025
aI33025
aI33025
aI33025
aI33025
aI33025
aI33025
aI33025
aI33025
aI33025
aI33028
aI33028
aI33028
aI33028
aI33028
aI33028
aI33028
aI33028
aI33028
aI33028
aI33028
aI33028
aI33028
aI33028
aI33028
aI33028
aI33027
aI33027
aI33027
aI33027
aI33027
aI33027
aI33027
aI33027
aI33027
aI33027
aI33027
aI33027
aI33027
aI33027
aI33027
aI33027
aI33027
aI33027
aI33027
aI33027
aI33027
aI33027
aI33027
aI33026
aI33026
aI33026
aI33026
aI33026
aI33026
aI33026
aI33026
aI33026
aI33026
aI33026
aI33026
aI33026
aI33026
aI33026
aI33026
aI33026
aI33026
aI33026
aI33026
aI33026
aI33026
aI33026
aI33026
aI33027
aI33027
aI33027
aI33027
aI33027
aI33027
aI33027
aI33027
aI33027
aI33027
aI33027
aI33027
aI33027
aI33027
aI33027
aI33026
aI33026
aI33026
aI33026
aI33026
aI33026
aI33026
aI33026
aI33026
aI33026
aI33026
aI33026
aI33026
aI33026
aI33026
aI33026
aI33026
aI33026
aI33026
aI33026
aI33026
aI33026
aI33026
aI33026
aI33026
aI33027
aI33027
aI33027
aI33027
aI33027
aI33027
aI33027
aI33027
aI33027
aI33028
aI33028
aI33028
aI33028
aI33028
aI33028
aI33028
aI33028
aI33028
aI33028
aI33028
aI33028
aI33028
aI33028
aI33026
aI33026
aI33026
aI33026
aI33026
aI33026
aI33026
aI33026
aI33026
aI33026
aI33026
aI33026
aI33026
aI33026
aI33026
aI33026
aI33026
aI33026
aI33026
aI33026
aI33026
aI33026
aI33026
aI33026
aI33026
aI33026
aI33027
aI33027
aI33027
aI33027
aI33027
aI33027
aI33027
aI33027
aI33027
aI33027
aI33027
aI33025
aI33025
aI33025
aI33025
aI33025
aI33025
aI33025
aI33025
aI33025
aI33025
aI33025
aI33025
aI33025
aI33025
aI33028
aI33028
aI33028
aI33028
aI33028
aI33028
aI33028
aI33028
aI33028
aI33028
aI33028
aI33028
aI33028
aI33028
aI33028
aI33028
aI33028
aI33028
aI33028
aI33028
aI33028
aI33028
aI33028
aI33026
aI33026
aI33026
aI33026
aI33026
aI33026
aI33026
aI33026
aI33026
aI33026
aI33026
aI33026
aa(lp7
I33027
aI33027
aI33027
aI33027
aI33027
aI33027
aI33027
aI33027
aI33027
aI33027
aI33028
aI33028
aI33028
aI33028
aI33028
aI33028
aI33027
aI33027
aI33027
aI33027
aI33027
aI33027
aI33027
aI33027
aI33027
aI33027
aI33027
aI33027
aI33026
aI33026
aI33026
aI33026
aI33026
aI33026
aI33026
aI33026
aI33026
aI33026
aI33026
aI33026
aI33026
aI33026
aI33026
aI33026
aI33026
aI33026
aI33026
aI33026
aI33026
aI33026
aI33026
aI33026
aI33026
aI33026
aI33026
aI33026
aI33026
aI33026
aI33026
aI33026
aI33026
aI33026
aI33026
aI33026
aI33026
aI33027
aI33027
aI33027
aI33027
aI33027
aI33027
aI33027
aI33027
aI33027
aI33027
aI33027
aI33027
aI33027
aI33027
aI33027
aI33027
aI33027
aI33027
aI33027
aI33027
aI33027
aI33027
aI33027
aI33027
aI33027
aI33027
aI33027
aI33027
aI33027
aI33027
aI33028
aI33028
aI33028
aI33028
aI33028
aI33028
aI33028
aI33028
aI33028
aI33028
aI33028
aI33028
aI33028
aI33028
aI33028
aI33028
aI33028
aI33028
aI33028
aI33028
aI33026
aI33026
aI33026
aI33026
aI33026
aI33026
aI33026
aI33026
aI33026
aI33026
aI33026
aI33026
aI33025
aI33025
aI33025
aI33025
aI33025
aI33025
aI33025
aI33025
aI33025
aI33025
aI33025
aI33025
aI33025
aI33025
aI33025
aI33025
aI33025
aI33025
aI33025
aI33025
aI33025
aI33025
aI33025
aI33025
aI33025
aI33025
aI33025
aI33025
aI33025
aI33025
aI33025
aI33025
aI33025
aI33025
aI33025
aI33025
aI33025
aI33025
aI33025
aI33026
aI33026
aI33026
aI33026
aI33026
aI33026
aI33026
aI33026
aI33026
aI33026
aI33026
aI33026
aI33026
aI33026
aI33026
aI33026
aI33026
aI33026
aI33026
aI33026
aI33026
aI33026
aI33026
aI33026
aI33026
aI33026
aI33026
aI33026
aI33026
aI33026
aI33026
aI33025
aI33025
aI33025
aI33025
aI33028
aI33028
aI33028
aI33028
aI33028
aI33028
aI33028
aI33027
aI33027
aI33027
aI33027
aI33027
aI33027
aI33027
aI33027
aI33027
aI33027
aI33027
aI33027
aI33025
aI33025
aI33025
aI33025
aI33025
aI33025
aI33025
aI33025
aI33025
aI33025
aI33025
aI33025
aI33025
aI33028
aI33028
aI33028
aI33028
aI33028
aI33028
aI33028
aI33028
aI33028
aI33026
aI33026
aI33026
aI33026
aI33026
aI33026
aI33026
aI33026
aI33026
aI33026
aI33026
aI33026
aI33026
aI33026
aI33026
aI33026
aI33026
aI33026
aI33026
aI33026
aI33026
aI33026
aI33026
aI33026
aI33026
aI33026
aI33026
aI33026
aI33026
aI33026
aI33026
aI33026
aI33026
aI33026
aI33026
aI33027
aI33027
aI33027
aI33025
aI33025
aI33025
aI33025
aI33025
aI33025
aI33025
aI33025
aI33026
aI33026
aI33026
aI33026
aI33026
aI33026
aI33026
aI33026
aI33028
aI33028
aI33028
aI33028
aI33028
aI33028
aI33028
aI33028
aI33028
aI33028
aI33028
aI33028
aI33028
aI33028
aI33028
aI33028
aI33028
aI33028
aI33028
aI33028
aI33028
aI33028
aI33028
aI33028
aI33028
aI33028
aI33028
aI33028
aI33028
aI33028
aI33028
aI33028
aI33028
aI33028
aI33028
aI33027
aI33027
aI33027
aI33027
aI33027
aI33027
aI33027
aI33027
aI33027
aI33027
aI33027
aI33027
aI33027
aI33027
aI33027
aI33027
aI33027
aI33027
aI33027
aI33027
aI33027
aI33027
aI33027
aI33027
aI33027
aI33027
aI33027
aI33027
aI33025
aI33025
aI33025
aI33025
aI33025
aI33025
aI33025
aI33025
aI33025
aI33025
aI33025
aI33025
aI33025
aI33025
aI33025
aI33025
aI33025
aI33025
aI33025
aI33028
aI33028
aI33028
aI33028
aI33028
aI33028
aI33028
aI33028
aI33028
aI33027
aI33027
aI33027
aI33025
aI33025
aI33025
aI33025
aI33025
aI33025
aI33026
aI33026
aI33026
aI33026
aI33027
aI33027
aI33027
aI33027
aI33027
aI33027
aI33027
aI33027
aI33027
aI33027
aI33027
aI33027
aI33027
aI33027
aI33027
aI33027
aI33027
aI33027
aI33027
aI33027
aI33027
aI33027
aI33027
aI33025
aI33025
aI33025
aI33025
aI33025
aI33025
aI33025
aI33025
aI33025
aI33025
aI33025
aI33025
aI33025
aI33026
aI33026
aI33026
aI33026
aI33026
aI33026
aI33026
aI33026
aI33026
aI33026
aI33026
aI33026
aI33026
aI33026
aI33026
aI33026
aI33025
aI33025
aI33025
aI33025
aI33025
aI33025
aI33025
aI33025
aI33025
aI33025
aI33025
aI33025
aI33025
aI33025
aI33025
aI33025
aI33025
aI33025
aI33025
aI33025
aI33028
aI33028
aI33028
aI33028
aI33028
aI33028
aI33028
aI33028
aI33028
aI33028
aI33028
aI33028
aI33028
aI33028
aI33028
aI33028
aI33027
aI33027
aI33027
aI33027
aI33027
aI33027
aI33027
aI33027
aI33027
aI33027
aI33027
aI33027
aI33027
aI33027
aI33027
aI33027
aI33027
aI33027
aI33027
aI33027
aI33027
aI33027
aI33027
aI33026
aI33026
aI33026
aI33026
aI33026
aI33026
aI33026
aI33026
aI33026
aI33026
aI33026
aI33026
aI33026
aI33026
aI33026
aI33026
aI33026
aI33026
aI33026
aI33026
aI33026
aI33026
aI33026
aI33026
aI33027
aI33027
aI33027
aI33027
aI33027
aI33027
aI33027
aI33027
aI33027
aI33027
aI33027
aI33027
aI33027
aI33027
aI33027
aI33026
aI33026
aI33026
aI33026
aI33026
aI33026
aI33026
aI33026
aI33026
aI33026
aI33026
aI33026
aI33026
aI33026
aI33026
aI33026
aI33026
aI33026
aI33026
aI33026
aI33026
aI33026
aI33026
aI33026
aI33026
aI33027
aI33027
aI33027
aI33027
aI33027
aI33027
aI33027
aI33027
aI33027
aI33028
aI33028
aI33028
aI33028
aI33028
aI33028
aI33028
aI33028
aI33028
aI33028
aI33028
aI33028
aI33028
aI33028
aI33027
aI33027
aI33027
aI33027
aI33027
aI33027
aI33027
aI33027
aI33026
aI33026
aI33026
aI33026
aI33026
aI33026
aI33026
aI33026
aI33026
aI33026
aI33026
aI33026
aI33026
aI33026
aI33026
aI33026
aI33026
aI33026
aI33027
aI33027
aI33027
aI33027
aI33027
aI33027
aI33027
aI33027
aI33027
aI33027
aI33027
aI33027
aI33027
aI33027
aI33027
aI33027
aI33027
aI33025
aI33025
aI33025
aI33025
aI33025
aI33025
aI33025
aI33025
aI33027
aI33027
aI33027
aI33027
aI33027
aI33027
aI33027
aI33027
aI33027
aI33027
aI33027
aI33027
aI33027
aI33027
aI33027
aI33028
aI33028
aI33028
aI33028
aI33028
aI33028
aI33028
aI33028
aI33026
aI33026
aI33026
aI33026
aI33026
aI33026
aI33026
aI33026
aI33026
aI33026
aI33026
aI33026
aa.